; Function Attrs: mustprogress nofree norecurse nosync nounwind null_pointer_is_valid sspstrong willreturn memory(argmem: readwrite) uwtable
define void @tvbparse_shrink_token_cb(ptr noundef readnone captures(none) %0, ptr noundef readnone captures(none) %1, ptr noundef captures(none) %2) local_unnamed_addr #6 {
  %4 = getelementptr inbounds nuw i8, ptr %2, i64 24
  %5 = load i32, ptr %4, align 8
  %6 = add i32 %5, 1
  store i32 %6, ptr %4, align 8
  %7 = getelementptr inbounds nuw i8, ptr %2, i64 28
  %8 = load i32, ptr %7, align 4
  %9 = add i32 %8, -2
  store i32 %9, ptr %7, align 4
  ret void
}